target datalayout = "e-m:e-p270:32:32-p271:32:32-p272:64:64-i64:64-i128:128-f80:128-n8:16:32:64-S128"
target triple = "x86_64-pc-linux-gnu"

@PyExc_OSError = external global ptr, align 8

; Function Attrs: nounwind uwtable
define dso_local i32 @_Py_fstat_noraise(i32 noundef %0, ptr noundef %1) #0 {
  %3 = alloca i32, align 4
  %4 = alloca ptr, align 8
  store i32 %0, ptr %3, align 4, !tbaa !4
  store ptr %1, ptr %4, align 8, !tbaa !193
  %5 = load i32, ptr %3, align 4, !tbaa !4
  %6 = load ptr, ptr %4, align 8, !tbaa !193
  %7 = call i32 @fstat64(i32 noundef %5, ptr noundef %6) #10
  ret i32 %7
}

; Function Attrs: nounwind uwtable
define dso_local i32 @_Py_fstat(i32 noundef %0, ptr noundef %1) #0 {
  %3 = alloca i32, align 4
  %4 = alloca i32, align 4
  %5 = alloca ptr, align 8
  %6 = alloca i32, align 4
  %7 = alloca ptr, align 8
  %8 = alloca i32, align 4
  store i32 %0, ptr %4, align 4, !tbaa !4
  store ptr %1, ptr %5, align 8, !tbaa !193
  call void @llvm.lifetime.start.p0(i64 4, ptr %6) #10
  call void @llvm.lifetime.start.p0(i64 8, ptr %7) #10
  %9 = call ptr @PyEval_SaveThread()
  store ptr %9, ptr %7, align 8, !tbaa !8
  %10 = load i32, ptr %4, align 4, !tbaa !4
  %11 = load ptr, ptr %5, align 8, !tbaa !193
  %12 = call i32 @_Py_fstat_noraise(i32 noundef %10, ptr noundef %11)
  store i32 %12, ptr %6, align 4, !tbaa !4
  %13 = load ptr, ptr %7, align 8, !tbaa !8
  call void @PyEval_RestoreThread(ptr noundef %13)
  call void @llvm.lifetime.end.p0(i64 8, ptr %7) #10
  %14 = load i32, ptr %6, align 4, !tbaa !4
  %15 = icmp ne i32 %14, 0
  br i1 %15, label %16, label %19

16:                                               ; preds = %2
  %17 = load ptr, ptr @PyExc_OSError, align 8, !tbaa !178
  %18 = call ptr @PyErr_SetFromErrno(ptr noundef %17)
  store i32 -1, ptr %3, align 4
  store i32 1, ptr %8, align 4
  br label %20

19:                                               ; preds = %2
  store i32 0, ptr %3, align 4
  store i32 1, ptr %8, align 4
  br label %20

20:                                               ; preds = %19, %16
  call void @llvm.lifetime.end.p0(i64 4, ptr %6) #10
  %21 = load i32, ptr %3, align 4
  ret i32 %21
}