; Function Attrs: nounwind uwtable
define dso_local range(i32 -1, 1) i32 @_Py_fstat(i32 noundef %0, ptr noundef captures(none) %1) local_unnamed_addr #0 {
  %3 = tail call ptr @PyEval_SaveThread() #17
  %4 = tail call noundef i32 @fstat64(i32 noundef %0, ptr noundef %1) #17
  tail call void @PyEval_RestoreThread(ptr noundef %3) #17
  %.not = icmp eq i32 %4, 0
  br i1 %.not, label %8, label %5

5:                                                ; preds = %2
  %6 = load ptr, ptr @PyExc_OSError, align 8, !tbaa !188
  %7 = tail call ptr @PyErr_SetFromErrno(ptr noundef %6) #17
  br label %8

8:                                                ; preds = %2, %5
  %.0 = phi i32 [ -1, %5 ], [ 0, %2 ]
  ret i32 %.0
}